; ModuleID = '25/1379.cpp'
source_filename = "25/1379.cpp"
target datalayout = "e-m:e-p270:32:32-p271:32:32-p272:64:64-i64:64-f80:128-n8:16:32:64-S128"
target triple = "x86_64-pc-linux-gnu"

%"class.std::ios_base::Init" = type { i8 }
%"class.std::basic_istream" = type { i32 (...)**, i64, %"class.std::basic_ios" }
%"class.std::basic_ios" = type { %"class.std::ios_base", %"class.std::basic_ostream"*, i8, i8, %"class.std::basic_streambuf"*, %"class.std::ctype"*, %"class.std::num_put"*, %"class.std::num_get"* }
%"class.std::ios_base" = type { i32 (...)**, i64, i64, i32, i32, i32, %"struct.std::ios_base::_Callback_list"*, %"struct.std::ios_base::_Words", [8 x %"struct.std::ios_base::_Words"], i32, %"struct.std::ios_base::_Words"*, %"class.std::locale" }
%"struct.std::ios_base::_Callback_list" = type { %"struct.std::ios_base::_Callback_list"*, void (i32, %"class.std::ios_base"*, i32)*, i32, i32 }
%"struct.std::ios_base::_Words" = type { i8*, i64 }
%"class.std::locale" = type { %"class.std::locale::_Impl"* }
%"class.std::locale::_Impl" = type { i32, %"class.std::locale::facet"**, i64, %"class.std::locale::facet"**, i8** }
%"class.std::locale::facet" = type <{ i32 (...)**, i32, [4 x i8] }>
%"class.std::basic_ostream" = type { i32 (...)**, %"class.std::basic_ios" }
%"class.std::basic_streambuf" = type { i32 (...)**, i8*, i8*, i8*, i8*, i8*, i8*, %"class.std::locale" }
%"class.std::ctype" = type <{ %"class.std::locale::facet.base", [4 x i8], %struct.__locale_struct*, i8, [7 x i8], i32*, i32*, i16*, i8, [256 x i8], [256 x i8], i8, [6 x i8] }>
%"class.std::locale::facet.base" = type <{ i32 (...)**, i32 }>
%struct.__locale_struct = type { [13 x %struct.__locale_data*], i16*, i32*, i32*, [13 x i8*] }
%struct.__locale_data = type opaque
%"class.std::num_put" = type { %"class.std::locale::facet.base", [4 x i8] }
%"class.std::num_get" = type { %"class.std::locale::facet.base", [4 x i8] }

@_ZStL8__ioinit = internal global %"class.std::ios_base::Init" zeroinitializer, align 1
@__dso_handle = external hidden global i8
@_ZSt3cin = external dso_local global %"class.std::basic_istream", align 8
@_ZSt4cout = external dso_local global %"class.std::basic_ostream", align 8
@llvm.global_ctors = appending global [1 x { i32, void ()*, i8* }] [{ i32, void ()*, i8* } { i32 65535, void ()* @_GLOBAL__sub_I_1379.cpp, i8* null }]

; Function Attrs: noinline uwtable
define internal void @__cxx_global_var_init() #0 section ".text.startup" {
  call void @_ZNSt8ios_base4InitC1Ev(%"class.std::ios_base::Init"* @_ZStL8__ioinit)
  %1 = call i32 @__cxa_atexit(void (i8*)* bitcast (void (%"class.std::ios_base::Init"*)* @_ZNSt8ios_base4InitD1Ev to void (i8*)*), i8* getelementptr inbounds (%"class.std::ios_base::Init", %"class.std::ios_base::Init"* @_ZStL8__ioinit, i32 0, i32 0), i8* @__dso_handle) #3
  ret void
}

declare dso_local void @_ZNSt8ios_base4InitC1Ev(%"class.std::ios_base::Init"*) unnamed_addr #1

; Function Attrs: nounwind
declare dso_local void @_ZNSt8ios_base4InitD1Ev(%"class.std::ios_base::Init"*) unnamed_addr #2

; Function Attrs: nounwind
declare dso_local i32 @__cxa_atexit(void (i8*)*, i8*, i8*) #3

; Function Attrs: noinline norecurse uwtable
define dso_local i32 @main() #4 {
  %1 = alloca i32, align 4
  %2 = alloca [1000 x i32], align 16
  %3 = alloca [1000 x i32], align 16
  %4 = alloca i32, align 4
  %5 = alloca i32, align 4
  %6 = alloca i32, align 4
  %7 = alloca i32, align 4
  %8 = alloca i32, align 4
  %9 = alloca i32, align 4
  %10 = alloca i32, align 4
  store i32 0, i32* %1, align 4
  %11 = bitcast [1000 x i32]* %2 to i8*
  call void @llvm.memset.p0i8.i64(i8* align 16 %11, i8 0, i64 4000, i1 false)
  %12 = bitcast [1000 x i32]* %3 to i8*
  call void @llvm.memset.p0i8.i64(i8* align 16 %12, i8 0, i64 4000, i1 false)
  %13 = getelementptr inbounds [1000 x i32], [1000 x i32]* %2, i64 0, i64 999
  store i32 1, i32* %13, align 4
  %14 = call dereferenceable(280) %"class.std::basic_istream"* @_ZNSirsERi(%"class.std::basic_istream"* @_ZSt3cin, i32* dereferenceable(4) %4)
  store i32 0, i32* %6, align 4
  br label %15

15:                                               ; preds = %59, %0
  %16 = load i32, i32* %6, align 4
  %17 = load i32, i32* %4, align 4
  %18 = icmp slt i32 %16, %17
  br i1 %18, label %19, label %62

19:                                               ; preds = %15
  store i32 0, i32* %7, align 4
  br label %20

20:                                               ; preds = %29, %19
  %21 = load i32, i32* %7, align 4
  %22 = icmp slt i32 %21, 1000
  br i1 %22, label %23, label %32

23:                                               ; preds = %20
  %24 = load i32, i32* %7, align 4
  %25 = sext i32 %24 to i64
  %26 = getelementptr inbounds [1000 x i32], [1000 x i32]* %2, i64 0, i64 %25
  %27 = load i32, i32* %26, align 4
  %28 = mul nsw i32 %27, 2
  store i32 %28, i32* %26, align 4
  br label %29

29:                                               ; preds = %23
  %30 = load i32, i32* %7, align 4
  %31 = add nsw i32 %30, 1
  store i32 %31, i32* %7, align 4
  br label %20

32:                                               ; preds = %20
  store i32 999, i32* %8, align 4
  br label %33

33:                                               ; preds = %55, %32
  %34 = load i32, i32* %8, align 4
  %35 = icmp sge i32 %34, 0
  br i1 %35, label %36, label %58

36:                                               ; preds = %33
  %37 = load i32, i32* %8, align 4
  %38 = sext i32 %37 to i64
  %39 = getelementptr inbounds [1000 x i32], [1000 x i32]* %2, i64 0, i64 %38
  %40 = load i32, i32* %39, align 4
  %41 = icmp sgt i32 %40, 9
  br i1 %41, label %42, label %54

42:                                               ; preds = %36
  %43 = load i32, i32* %8, align 4
  %44 = sub nsw i32 %43, 1
  %45 = sext i32 %44 to i64
  %46 = getelementptr inbounds [1000 x i32], [1000 x i32]* %2, i64 0, i64 %45
  %47 = load i32, i32* %46, align 4
  %48 = add nsw i32 %47, 1
  store i32 %48, i32* %46, align 4
  %49 = load i32, i32* %8, align 4
  %50 = sext i32 %49 to i64
  %51 = getelementptr inbounds [1000 x i32], [1000 x i32]* %2, i64 0, i64 %50
  %52 = load i32, i32* %51, align 4
  %53 = sub nsw i32 %52, 10
  store i32 %53, i32* %51, align 4
  br label %54

54:                                               ; preds = %42, %36
  br label %55

55:                                               ; preds = %54
  %56 = load i32, i32* %8, align 4
  %57 = add nsw i32 %56, -1
  store i32 %57, i32* %8, align 4
  br label %33

58:                                               ; preds = %33
  br label %59

59:                                               ; preds = %58
  %60 = load i32, i32* %6, align 4
  %61 = add nsw i32 %60, 1
  store i32 %61, i32* %6, align 4
  br label %15

62:                                               ; preds = %15
  store i32 0, i32* %9, align 4
  br label %63

63:                                               ; preds = %75, %62
  %64 = load i32, i32* %9, align 4
  %65 = icmp slt i32 %64, 1000
  br i1 %65, label %66, label %78

66:                                               ; preds = %63
  %67 = load i32, i32* %9, align 4
  %68 = sext i32 %67 to i64
  %69 = getelementptr inbounds [1000 x i32], [1000 x i32]* %2, i64 0, i64 %68
  %70 = load i32, i32* %69, align 4
  %71 = icmp ne i32 %70, 0
  br i1 %71, label %72, label %74

72:                                               ; preds = %66
  %73 = load i32, i32* %9, align 4
  store i32 %73, i32* %5, align 4
  br label %78

74:                                               ; preds = %66
  br label %75

75:                                               ; preds = %74
  %76 = load i32, i32* %9, align 4
  %77 = add nsw i32 %76, 1
  store i32 %77, i32* %9, align 4
  br label %63

78:                                               ; preds = %72, %63
  %79 = load i32, i32* %5, align 4
  store i32 %79, i32* %10, align 4
  br label %80

80:                                               ; preds = %89, %78
  %81 = load i32, i32* %10, align 4
  %82 = icmp slt i32 %81, 1000
  br i1 %82, label %83, label %92

83:                                               ; preds = %80
  %84 = load i32, i32* %10, align 4
  %85 = sext i32 %84 to i64
  %86 = getelementptr inbounds [1000 x i32], [1000 x i32]* %2, i64 0, i64 %85
  %87 = load i32, i32* %86, align 4
  %88 = call dereferenceable(272) %"class.std::basic_ostream"* @_ZNSolsEi(%"class.std::basic_ostream"* @_ZSt4cout, i32 %87)
  br label %89

89:                                               ; preds = %83
  %90 = load i32, i32* %10, align 4
  %91 = add nsw i32 %90, 1
  store i32 %91, i32* %10, align 4
  br label %80

92:                                               ; preds = %80
  ret i32 0
}

; Function Attrs: argmemonly nounwind willreturn
declare void @llvm.memset.p0i8.i64(i8* nocapture writeonly, i8, i64, i1 immarg) #5

declare dso_local dereferenceable(280) %"class.std::basic_istream"* @_ZNSirsERi(%"class.std::basic_istream"*, i32* dereferenceable(4)) #1

declare dso_local dereferenceable(272) %"class.std::basic_ostream"* @_ZNSolsEi(%"class.std::basic_ostream"*, i32) #1

; Function Attrs: noinline uwtable
define internal void @_GLOBAL__sub_I_1379.cpp() #0 section ".text.startup" {
  call void @__cxx_global_var_init()
  ret void
}


!llvm.module.flags = !{!0}
!llvm.ident = !{!1}

!0 = !{i32 1, !"wchar_size", i32 4}
!1 = !{!"clang version 10.0.0-4ubuntu1 "}
