; ModuleID = 'source-C-CXX/24/1379.cpp'
source_filename = "source-C-CXX/24/1379.cpp"
target datalayout = "e-m:e-p270:32:32-p271:32:32-p272:64:64-i64:64-f80:128-n8:16:32:64-S128"
target triple = "x86_64-pc-linux-gnu"

%"class.std::ios_base::Init" = type { i8 }
%"class.std::basic_istream" = type { i32 (...)**, i64, %"class.std::basic_ios" }
%"class.std::basic_ios" = type { %"class.std::ios_base", %"class.std::basic_ostream"*, i8, i8, %"class.std::basic_streambuf"*, %"class.std::ctype"*, %"class.std::num_put"*, %"class.std::num_get"* }
%"class.std::ios_base" = type { i32 (...)**, i64, i64, i32, i32, i32, %"struct.std::ios_base::_Callback_list"*, %"struct.std::ios_base::_Words", [8 x %"struct.std::ios_base::_Words"], i32, %"struct.std::ios_base::_Words"*, %"class.std::locale" }
%"struct.std::ios_base::_Callback_list" = type { %"struct.std::ios_base::_Callback_list"*, void (i32, %"class.std::ios_base"*, i32)*, i32, i32 }
%"struct.std::ios_base::_Words" = type { i8*, i64 }
%"class.std::locale" = type { %"class.std::locale::_Impl"* }
%"class.std::locale::_Impl" = type { i32, %"class.std::locale::facet"**, i64, %"class.std::locale::facet"**, i8** }
%"class.std::locale::facet" = type <{ i32 (...)**, i32, [4 x i8] }>
%"class.std::basic_ostream" = type { i32 (...)**, %"class.std::basic_ios" }
%"class.std::basic_streambuf" = type { i32 (...)**, i8*, i8*, i8*, i8*, i8*, i8*, %"class.std::locale" }
%"class.std::ctype" = type <{ %"class.std::locale::facet.base", [4 x i8], %struct.__locale_struct*, i8, [7 x i8], i32*, i32*, i16*, i8, [256 x i8], [256 x i8], i8, [6 x i8] }>
%"class.std::locale::facet.base" = type <{ i32 (...)**, i32 }>
%struct.__locale_struct = type { [13 x %struct.__locale_data*], i16*, i32*, i32*, [13 x i8*] }
%struct.__locale_data = type opaque
%"class.std::num_put" = type { %"class.std::locale::facet.base", [4 x i8] }
%"class.std::num_get" = type { %"class.std::locale::facet.base", [4 x i8] }

@_ZStL8__ioinit = internal global %"class.std::ios_base::Init" zeroinitializer, align 1
@__dso_handle = external hidden global i8
@_ZSt3cin = external global %"class.std::basic_istream", align 8
@_ZSt4cout = external global %"class.std::basic_ostream", align 8
@llvm.global_ctors = appending global [1 x { i32, void ()*, i8* }] [{ i32, void ()*, i8* } { i32 65535, void ()* @_GLOBAL__sub_I_1379.cpp, i8* null }]

declare void @_ZNSt8ios_base4InitC1Ev(%"class.std::ios_base::Init"* nonnull align 1 dereferenceable(1)) unnamed_addr #0

; Function Attrs: nounwind
declare void @_ZNSt8ios_base4InitD1Ev(%"class.std::ios_base::Init"* nonnull align 1 dereferenceable(1)) unnamed_addr #1

; Function Attrs: nofree nounwind
declare i32 @__cxa_atexit(void (i8*)*, i8*, i8*) local_unnamed_addr #2

; Function Attrs: mustprogress norecurse sspstrong uwtable
define dso_local i32 @main() local_unnamed_addr #3 {
  %1 = alloca [1000 x i32], align 16
  %2 = alloca i32, align 4
  %3 = bitcast [1000 x i32]* %1 to i8*
  call void @llvm.lifetime.start.p0i8(i64 4000, i8* nonnull %3) #7
  call void @llvm.memset.p0i8.i64(i8* noundef nonnull align 16 dereferenceable(4000) %3, i8 0, i64 4000, i1 false)
  %4 = bitcast i32* %2 to i8*
  call void @llvm.lifetime.start.p0i8(i64 4, i8* nonnull %4) #7
  %5 = getelementptr inbounds [1000 x i32], [1000 x i32]* %1, i64 0, i64 999
  store i32 1, i32* %5, align 4, !tbaa !5
  %6 = call nonnull align 8 dereferenceable(16) %"class.std::basic_istream"* @_ZNSirsERi(%"class.std::basic_istream"* nonnull align 8 dereferenceable(16) @_ZSt3cin, i32* nonnull align 4 dereferenceable(4) %2)
  %7 = load i32, i32* %2, align 4, !tbaa !5
  %8 = icmp sgt i32 %7, 0
  br i1 %8, label %10, label %9

9:                                                ; preds = %26, %0
  br label %45

10:                                               ; preds = %0, %26
  %11 = phi i32 [ %27, %26 ], [ 0, %0 ]
  br label %12

12:                                               ; preds = %69, %10
  %13 = phi i64 [ 0, %10 ], [ %80, %69 ]
  %14 = getelementptr inbounds [1000 x i32], [1000 x i32]* %1, i64 0, i64 %13
  %15 = bitcast i32* %14 to <4 x i32>*
  %16 = load <4 x i32>, <4 x i32>* %15, align 16, !tbaa !5
  %17 = getelementptr inbounds i32, i32* %14, i64 4
  %18 = bitcast i32* %17 to <4 x i32>*
  %19 = load <4 x i32>, <4 x i32>* %18, align 16, !tbaa !5
  %20 = shl nsw <4 x i32> %16, <i32 1, i32 1, i32 1, i32 1>
  %21 = shl nsw <4 x i32> %19, <i32 1, i32 1, i32 1, i32 1>
  %22 = bitcast i32* %14 to <4 x i32>*
  store <4 x i32> %20, <4 x i32>* %22, align 16, !tbaa !5
  %23 = bitcast i32* %17 to <4 x i32>*
  store <4 x i32> %21, <4 x i32>* %23, align 16, !tbaa !5
  %24 = or i64 %13, 8
  %25 = icmp eq i64 %24, 1000
  br i1 %25, label %29, label %69, !llvm.loop !9

26:                                               ; preds = %86
  %27 = add nuw nsw i32 %11, 1
  %28 = icmp eq i32 %27, %7
  br i1 %28, label %9, label %10, !llvm.loop !12

29:                                               ; preds = %12, %86
  %30 = phi i64 [ %44, %86 ], [ 999, %12 ]
  %31 = getelementptr inbounds [1000 x i32], [1000 x i32]* %1, i64 0, i64 %30
  %32 = load i32, i32* %31, align 4, !tbaa !5
  %33 = icmp sgt i32 %32, 9
  %34 = add nsw i64 %30, -1
  br i1 %33, label %35, label %40

35:                                               ; preds = %29
  %36 = getelementptr inbounds [1000 x i32], [1000 x i32]* %1, i64 0, i64 %34
  %37 = load i32, i32* %36, align 4, !tbaa !5
  %38 = add nsw i32 %37, 1
  store i32 %38, i32* %36, align 4, !tbaa !5
  %39 = add nsw i32 %32, -10
  store i32 %39, i32* %31, align 4, !tbaa !5
  br label %40

40:                                               ; preds = %29, %35
  %41 = getelementptr inbounds [1000 x i32], [1000 x i32]* %1, i64 0, i64 %34
  %42 = load i32, i32* %41, align 4, !tbaa !5
  %43 = icmp sgt i32 %42, 9
  %44 = add nsw i64 %30, -2
  br i1 %43, label %81, label %86

45:                                               ; preds = %103, %9
  %46 = phi i64 [ 0, %9 ], [ %104, %103 ]
  %47 = getelementptr inbounds [1000 x i32], [1000 x i32]* %1, i64 0, i64 %46
  %48 = load i32, i32* %47, align 4, !tbaa !5
  %49 = icmp eq i32 %48, 0
  br i1 %49, label %50, label %55

50:                                               ; preds = %45
  %51 = add nuw nsw i64 %46, 1
  %52 = getelementptr inbounds [1000 x i32], [1000 x i32]* %1, i64 0, i64 %51
  %53 = load i32, i32* %52, align 4, !tbaa !5
  %54 = icmp eq i32 %53, 0
  br i1 %54, label %88, label %55

55:                                               ; preds = %98, %93, %88, %50, %45
  %56 = phi i64 [ %46, %45 ], [ %51, %50 ], [ %89, %88 ], [ %94, %93 ], [ %99, %98 ]
  %57 = trunc i64 %56 to i32
  %58 = icmp ult i32 %57, 1000
  br i1 %58, label %59, label %61

59:                                               ; preds = %55
  %60 = and i64 %56, 4294967295
  br label %62

61:                                               ; preds = %103, %62, %55
  call void @llvm.lifetime.end.p0i8(i64 4, i8* nonnull %4) #7
  call void @llvm.lifetime.end.p0i8(i64 4000, i8* nonnull %3) #7
  ret i32 0

62:                                               ; preds = %59, %62
  %63 = phi i64 [ %60, %59 ], [ %67, %62 ]
  %64 = getelementptr inbounds [1000 x i32], [1000 x i32]* %1, i64 0, i64 %63
  %65 = load i32, i32* %64, align 4, !tbaa !5
  %66 = call nonnull align 8 dereferenceable(8) %"class.std::basic_ostream"* @_ZNSolsEi(%"class.std::basic_ostream"* nonnull align 8 dereferenceable(8) @_ZSt4cout, i32 %65)
  %67 = add nuw nsw i64 %63, 1
  %68 = icmp eq i64 %67, 1000
  br i1 %68, label %61, label %62, !llvm.loop !13

69:                                               ; preds = %12
  %70 = getelementptr inbounds [1000 x i32], [1000 x i32]* %1, i64 0, i64 %24
  %71 = bitcast i32* %70 to <4 x i32>*
  %72 = load <4 x i32>, <4 x i32>* %71, align 16, !tbaa !5
  %73 = getelementptr inbounds i32, i32* %70, i64 4
  %74 = bitcast i32* %73 to <4 x i32>*
  %75 = load <4 x i32>, <4 x i32>* %74, align 16, !tbaa !5
  %76 = shl nsw <4 x i32> %72, <i32 1, i32 1, i32 1, i32 1>
  %77 = shl nsw <4 x i32> %75, <i32 1, i32 1, i32 1, i32 1>
  %78 = bitcast i32* %70 to <4 x i32>*
  store <4 x i32> %76, <4 x i32>* %78, align 16, !tbaa !5
  %79 = bitcast i32* %73 to <4 x i32>*
  store <4 x i32> %77, <4 x i32>* %79, align 16, !tbaa !5
  %80 = add nuw nsw i64 %13, 16
  br label %12

81:                                               ; preds = %40
  %82 = getelementptr inbounds [1000 x i32], [1000 x i32]* %1, i64 0, i64 %44
  %83 = load i32, i32* %82, align 4, !tbaa !5
  %84 = add nsw i32 %83, 1
  store i32 %84, i32* %82, align 4, !tbaa !5
  %85 = add nsw i32 %42, -10
  store i32 %85, i32* %41, align 4, !tbaa !5
  br label %86

86:                                               ; preds = %81, %40
  %87 = icmp eq i64 %34, 0
  br i1 %87, label %26, label %29, !llvm.loop !14

88:                                               ; preds = %50
  %89 = add nuw nsw i64 %46, 2
  %90 = getelementptr inbounds [1000 x i32], [1000 x i32]* %1, i64 0, i64 %89
  %91 = load i32, i32* %90, align 4, !tbaa !5
  %92 = icmp eq i32 %91, 0
  br i1 %92, label %93, label %55

93:                                               ; preds = %88
  %94 = add nuw nsw i64 %46, 3
  %95 = getelementptr inbounds [1000 x i32], [1000 x i32]* %1, i64 0, i64 %94
  %96 = load i32, i32* %95, align 4, !tbaa !5
  %97 = icmp eq i32 %96, 0
  br i1 %97, label %98, label %55

98:                                               ; preds = %93
  %99 = add nuw nsw i64 %46, 4
  %100 = getelementptr inbounds [1000 x i32], [1000 x i32]* %1, i64 0, i64 %99
  %101 = load i32, i32* %100, align 4, !tbaa !5
  %102 = icmp eq i32 %101, 0
  br i1 %102, label %103, label %55

103:                                              ; preds = %98
  %104 = add nuw nsw i64 %46, 5
  %105 = icmp eq i64 %104, 1000
  br i1 %105, label %61, label %45, !llvm.loop !15
}

; Function Attrs: argmemonly mustprogress nofree nosync nounwind willreturn
declare void @llvm.lifetime.start.p0i8(i64 immarg, i8* nocapture) #4

; Function Attrs: argmemonly mustprogress nofree nounwind willreturn writeonly
declare void @llvm.memset.p0i8.i64(i8* nocapture writeonly, i8, i64, i1 immarg) #5

declare nonnull align 8 dereferenceable(16) %"class.std::basic_istream"* @_ZNSirsERi(%"class.std::basic_istream"* nonnull align 8 dereferenceable(16), i32* nonnull align 4 dereferenceable(4)) local_unnamed_addr #0

; Function Attrs: argmemonly mustprogress nofree nosync nounwind willreturn
declare void @llvm.lifetime.end.p0i8(i64 immarg, i8* nocapture) #4

declare nonnull align 8 dereferenceable(8) %"class.std::basic_ostream"* @_ZNSolsEi(%"class.std::basic_ostream"* nonnull align 8 dereferenceable(8), i32) local_unnamed_addr #0

; Function Attrs: sspstrong uwtable
define internal void @_GLOBAL__sub_I_1379.cpp() #6 section ".text.startup" {
  tail call void @_ZNSt8ios_base4InitC1Ev(%"class.std::ios_base::Init"* nonnull align 1 dereferenceable(1) @_ZStL8__ioinit)
  %1 = tail call i32 @__cxa_atexit(void (i8*)* bitcast (void (%"class.std::ios_base::Init"*)* @_ZNSt8ios_base4InitD1Ev to void (i8*)*), i8* getelementptr inbounds (%"class.std::ios_base::Init", %"class.std::ios_base::Init"* @_ZStL8__ioinit, i64 0, i32 0), i8* nonnull @__dso_handle) #7
  ret void
}


!llvm.module.flags = !{!0, !1, !2, !3}
!llvm.ident = !{!4}

!0 = !{i32 1, !"wchar_size", i32 4}
!1 = !{i32 7, !"PIC Level", i32 2}
!2 = !{i32 7, !"PIE Level", i32 2}
!3 = !{i32 7, !"uwtable", i32 1}
!4 = !{!"clang version 13.0.0"}
!5 = !{!6, !6, i64 0}
!6 = !{!"int", !7, i64 0}
!7 = !{!"omnipotent char", !8, i64 0}
!8 = !{!"Simple C++ TBAA"}
!9 = distinct !{!9, !10, !11}
!10 = !{!"llvm.loop.mustprogress"}
!11 = !{!"llvm.loop.isvectorized", i32 1}
!12 = distinct !{!12, !10}
!13 = distinct !{!13, !10}
!14 = distinct !{!14, !10}
!15 = distinct !{!15, !10}
